target datalayout = "e-m:e-p270:32:32-p271:32:32-p272:64:64-i64:64-i128:128-f80:128-n8:16:32:64-S128"
target triple = "x86_64-pc-linux-gnu"

%struct.ossl_crmf_attributetypeandvalue_st = type { ptr, %union.anon.0 }
%union.anon.0 = type { ptr }

@.str.12 = private unnamed_addr constant [32 x i8] c"../openssl/crypto/cmp/cmp_asn.c\00", align 1
@__func__.OSSL_CMP_ATAV_new_rsaKeyLen = private unnamed_addr constant [28 x i8] c"OSSL_CMP_ATAV_new_rsaKeyLen\00", align 1

; Function Attrs: nounwind uwtable
define void @OSSL_CMP_ATAV_set0(ptr noundef %0, ptr noundef %1, ptr noundef %2) #0 {
  %4 = alloca ptr, align 8
  %5 = alloca ptr, align 8
  %6 = alloca ptr, align 8
  store ptr %0, ptr %4, align 8, !tbaa !87
  store ptr %1, ptr %5, align 8, !tbaa !50
  store ptr %2, ptr %6, align 8, !tbaa !52
  %7 = load ptr, ptr %5, align 8, !tbaa !50
  %8 = load ptr, ptr %4, align 8, !tbaa !87
  %9 = getelementptr inbounds nuw %struct.ossl_crmf_attributetypeandvalue_st, ptr %8, i32 0, i32 0
  store ptr %7, ptr %9, align 8, !tbaa !93
  %10 = load ptr, ptr %6, align 8, !tbaa !52
  %11 = load ptr, ptr %4, align 8, !tbaa !87
  %12 = getelementptr inbounds nuw %struct.ossl_crmf_attributetypeandvalue_st, ptr %11, i32 0, i32 1
  store ptr %10, ptr %12, align 8, !tbaa !56
  ret void
}

; Function Attrs: nounwind uwtable
define ptr @OSSL_CMP_ATAV_create(ptr noundef %0, ptr noundef %1) #0 {
  %3 = alloca ptr, align 8
  %4 = alloca ptr, align 8
  %5 = alloca ptr, align 8
  %6 = alloca ptr, align 8
  %7 = alloca i32, align 4
  store ptr %0, ptr %4, align 8, !tbaa !50
  store ptr %1, ptr %5, align 8, !tbaa !52
  call void @llvm.lifetime.start.p0(i64 8, ptr %6) #4
  %8 = call ptr @OSSL_CRMF_ATTRIBUTETYPEANDVALUE_new()
  store ptr %8, ptr %6, align 8, !tbaa !87
  %9 = icmp eq ptr %8, null
  br i1 %9, label %10, label %11

10:                                               ; preds = %2
  store ptr null, ptr %3, align 8
  store i32 1, ptr %7, align 4
  br label %16

11:                                               ; preds = %2
  %12 = load ptr, ptr %6, align 8, !tbaa !87
  %13 = load ptr, ptr %4, align 8, !tbaa !50
  %14 = load ptr, ptr %5, align 8, !tbaa !52
  call void @OSSL_CMP_ATAV_set0(ptr noundef %12, ptr noundef %13, ptr noundef %14)
  %15 = load ptr, ptr %6, align 8, !tbaa !87
  store ptr %15, ptr %3, align 8
  store i32 1, ptr %7, align 4
  br label %16

16:                                               ; preds = %11, %10
  call void @llvm.lifetime.end.p0(i64 8, ptr %6) #4
  %17 = load ptr, ptr %3, align 8
  ret ptr %17
}

; Function Attrs: nounwind uwtable
define ptr @OSSL_CMP_ATAV_new_rsaKeyLen(i32 noundef %0) #0 {
  %2 = alloca ptr, align 8
  %3 = alloca i32, align 4
  %4 = alloca ptr, align 8
  %5 = alloca ptr, align 8
  %6 = alloca i32, align 4
  store i32 %0, ptr %3, align 4, !tbaa !59
  call void @llvm.lifetime.start.p0(i64 8, ptr %4) #4
  call void @llvm.lifetime.start.p0(i64 8, ptr %5) #4
  store ptr null, ptr %5, align 8, !tbaa !87
  %7 = load i32, ptr %3, align 4, !tbaa !59
  %8 = icmp sle i32 %7, 0
  br i1 %8, label %9, label %10

9:                                                ; preds = %1
  call void @ERR_new()
  call void @ERR_set_debug(ptr noundef @.str.12, i32 noundef 531, ptr noundef @__func__.OSSL_CMP_ATAV_new_rsaKeyLen)
  call void (i32, i32, ptr, ...) @ERR_set_error(i32 noundef 58, i32 noundef 524550, ptr noundef null)
  store ptr null, ptr %2, align 8
  store i32 1, ptr %6, align 4
  br label %29

10:                                               ; preds = %1
  %11 = call ptr @ASN1_INTEGER_new()
  store ptr %11, ptr %4, align 8, !tbaa !97
  %12 = icmp eq ptr %11, null
  br i1 %12, label %13, label %14

13:                                               ; preds = %10
  store ptr null, ptr %2, align 8
  store i32 1, ptr %6, align 4
  br label %29

14:                                               ; preds = %10
  %15 = load ptr, ptr %4, align 8, !tbaa !97
  %16 = load i32, ptr %3, align 4, !tbaa !59
  %17 = sext i32 %16 to i64
  %18 = call i32 @ASN1_INTEGER_set(ptr noundef %15, i64 noundef %17)
  %19 = icmp ne i32 %18, 0
  br i1 %19, label %20, label %25

20:                                               ; preds = %14
  %21 = call ptr @OBJ_nid2obj(i32 noundef 1260)
  %22 = load ptr, ptr %4, align 8, !tbaa !97
  %23 = call ptr @OSSL_CMP_ATAV_create(ptr noundef %21, ptr noundef %22)
  store ptr %23, ptr %5, align 8, !tbaa !87
  %24 = icmp eq ptr %23, null
  br i1 %24, label %25, label %27

25:                                               ; preds = %20, %14
  %26 = load ptr, ptr %4, align 8, !tbaa !97
  call void @ASN1_INTEGER_free(ptr noundef %26)
  br label %27

27:                                               ; preds = %25, %20
  %28 = load ptr, ptr %5, align 8, !tbaa !87
  store ptr %28, ptr %2, align 8
  store i32 1, ptr %6, align 4
  br label %29

29:                                               ; preds = %27, %13, %9
  call void @llvm.lifetime.end.p0(i64 8, ptr %5) #4
  call void @llvm.lifetime.end.p0(i64 8, ptr %4) #4
  %30 = load ptr, ptr %2, align 8
  ret ptr %30
}