; Function Attrs: nounwind uwtable
define ptr @OSSL_CMP_ATAV_new_rsaKeyLen(i32 noundef %0) local_unnamed_addr #1 {
  %2 = icmp slt i32 %0, 1
  br i1 %2, label %3, label %4

3:                                                ; preds = %1
  tail call void @ERR_new() #6
  tail call void @ERR_set_debug(ptr noundef nonnull @.str.12, i32 noundef 531, ptr noundef nonnull @__func__.OSSL_CMP_ATAV_new_rsaKeyLen) #6
  tail call void (i32, i32, ptr, ...) @ERR_set_error(i32 noundef 58, i32 noundef 524550, ptr noundef null) #6
  br label %15

4:                                                ; preds = %1
  %5 = tail call ptr @ASN1_INTEGER_new() #6
  %6 = icmp eq ptr %5, null
  br i1 %6, label %15, label %7

7:                                                ; preds = %4
  %8 = zext nneg i32 %0 to i64
  %9 = tail call i32 @ASN1_INTEGER_set(ptr noundef nonnull %5, i64 noundef %8) #6
  %.not = icmp eq i32 %9, 0
  br i1 %.not, label %OSSL_CMP_ATAV_create.exit.thread, label %10

10:                                               ; preds = %7
  %11 = tail call ptr @OBJ_nid2obj(i32 noundef 1260) #6
  %12 = tail call ptr @OSSL_CRMF_ATTRIBUTETYPEANDVALUE_new() #6
  %13 = icmp eq ptr %12, null
  br i1 %13, label %OSSL_CMP_ATAV_create.exit.thread, label %OSSL_CMP_ATAV_create.exit

OSSL_CMP_ATAV_create.exit:                        ; preds = %10
  store ptr %11, ptr %12, align 8, !tbaa !29
  %14 = getelementptr inbounds nuw i8, ptr %12, i64 8
  store ptr %5, ptr %14, align 8, !tbaa !9
  br label %15

OSSL_CMP_ATAV_create.exit.thread:                 ; preds = %10, %7
  tail call void @ASN1_INTEGER_free(ptr noundef nonnull %5) #6
  br label %15

15:                                               ; preds = %OSSL_CMP_ATAV_create.exit, %OSSL_CMP_ATAV_create.exit.thread, %4, %3
  %.06 = phi ptr [ null, %3 ], [ null, %4 ], [ null, %OSSL_CMP_ATAV_create.exit.thread ], [ %12, %OSSL_CMP_ATAV_create.exit ]
  ret ptr %.06
}